; ModuleID = 'compiler_builtins.df240362-cgu.0'
source_filename = "compiler_builtins.df240362-cgu.0"
target datalayout = "e-m:e-p270:32:32-p271:32:32-p272:64:64-i64:64-f80:128-n8:16:32:64-S128"
target triple = "x86_64-unknown-linux-gnu"

module asm ""
module asm "            .pushsection .text.__rust_probestack"
module asm "            .globl __rust_probestack"
module asm "            .type  __rust_probestack, @function"
module asm "            .hidden __rust_probestack"
module asm "        __rust_probestack:"
module asm "            "
module asm "    .cfi_startproc"
module asm "    pushq  %rbp"
module asm "    .cfi_adjust_cfa_offset 8"
module asm "    .cfi_offset %rbp, -16"
module asm "    movq   %rsp, %rbp"
module asm "    .cfi_def_cfa_register %rbp"
module asm ""
module asm "    mov    %rax,%r11        // duplicate %rax as we're clobbering %r11"
module asm ""
module asm "    // Main loop, taken in one page increments. We're decrementing rsp by"
module asm "    // a page each time until there's less than a page remaining. We're"
module asm "    // guaranteed that this function isn't called unless there's more than a"
module asm "    // page needed."
module asm "    //"
module asm "    // Note that we're also testing against `8(%rsp)` to account for the 8"
module asm "    // bytes pushed on the stack orginally with our return address. Using"
module asm "    // `8(%rsp)` simulates us testing the stack pointer in the caller's"
module asm "    // context."
module asm ""
module asm "    // It's usually called when %rax >= 0x1000, but that's not always true."
module asm "    // Dynamic stack allocation, which is needed to implement unsized"
module asm "    // rvalues, triggers stackprobe even if %rax < 0x1000."
module asm "    // Thus we have to check %r11 first to avoid segfault."
module asm "    cmp    $0x1000,%r11"
module asm "    jna    3f"
module asm "2:"
module asm "    sub    $0x1000,%rsp"
module asm "    test   %rsp,8(%rsp)"
module asm "    sub    $0x1000,%r11"
module asm "    cmp    $0x1000,%r11"
module asm "    ja     2b"
module asm ""
module asm "3:"
module asm "    // Finish up the last remaining stack space requested, getting the last"
module asm "    // bits out of r11"
module asm "    sub    %r11,%rsp"
module asm "    test   %rsp,8(%rsp)"
module asm ""
module asm "    // Restore the stack pointer to what it previously was when entering"
module asm "    // this function. The caller will readjust the stack pointer after we"
module asm "    // return."
module asm "    add    %rax,%rsp"
module asm ""
module asm "    leave"
module asm "    .cfi_def_cfa_register %rsp"
module asm "    .cfi_adjust_cfa_offset -8"
module asm "    ret"
module asm "    .cfi_endproc"
module asm "    "
module asm "            .size __rust_probestack, . - __rust_probestack"
module asm "            .popsection"
module asm "            "
module asm ".section .llvmbc,\22e\22"
